; Function Attrs: nounwind uwtable
define dso_local ptr @PyDictProxy_New(ptr noundef %0) local_unnamed_addr #0 {
  %2 = tail call i32 @PyMapping_Check(ptr noundef %0) #9
  %.not.i = icmp eq i32 %2, 0
  %.phi.trans.insert.i = getelementptr i8, ptr %0, i64 8
  %.val.pre.i = load ptr, ptr %.phi.trans.insert.i, align 8, !tbaa !19
  br i1 %.not.i, label %mappingproxy_check_mapping.exit.thread, label %3

3:                                                ; preds = %1
  %4 = getelementptr i8, ptr %.val.pre.i, i64 168
  %.val8.i = load i64, ptr %4, align 8, !tbaa !20
  %5 = and i64 %.val8.i, 100663296
  %or.cond.i = icmp eq i64 %5, 0
  br i1 %or.cond.i, label %mappingproxy_check_mapping.exit, label %mappingproxy_check_mapping.exit.thread

mappingproxy_check_mapping.exit.thread:           ; preds = %1, %3
  %6 = load ptr, ptr @PyExc_TypeError, align 8, !tbaa !30
  %7 = getelementptr inbounds nuw i8, ptr %.val.pre.i, i64 24
  %8 = load ptr, ptr %7, align 8, !tbaa !29
  %9 = tail call ptr (ptr, ptr, ...) @PyErr_Format(ptr noundef %6, ptr noundef nonnull @.str.45, ptr noundef %8) #9
  br label %40

mappingproxy_check_mapping.exit:                  ; preds = %3
  %10 = tail call ptr @_PyObject_GC_New(ptr noundef nonnull @PyDictProxy_Type) #9
  %.not = icmp eq ptr %10, null
  br i1 %.not, label %40, label %11

11:                                               ; preds = %mappingproxy_check_mapping.exit
  %12 = load i32, ptr %0, align 8, !tbaa !16
  %13 = icmp slt i32 %12, 0
  br i1 %13, label %_Py_NewRef.exit, label %14

14:                                               ; preds = %11
  %15 = add nuw i32 %12, 1
  store i32 %15, ptr %0, align 8, !tbaa !16
  br label %_Py_NewRef.exit

_Py_NewRef.exit:                                  ; preds = %11, %14
  %16 = getelementptr inbounds nuw i8, ptr %10, i64 16
  store ptr %0, ptr %16, align 8, !tbaa !148
  %17 = getelementptr i8, ptr %10, i64 -16
  %18 = tail call align 8 ptr @llvm.threadlocal.address.p0(ptr align 8 @_Py_tss_tstate)
  %19 = load ptr, ptr %18, align 8, !tbaa !63
  %20 = getelementptr inbounds nuw i8, ptr %19, i64 16
  %21 = load ptr, ptr %20, align 8, !tbaa !65
  %22 = getelementptr inbounds nuw i8, ptr %21, i64 7424
  %23 = getelementptr inbounds nuw i8, ptr %21, i64 7432
  %24 = load i64, ptr %23, align 8, !tbaa !4
  %25 = inttoptr i64 %24 to ptr
  %26 = ptrtoint ptr %17 to i64
  %27 = load i64, ptr %25, align 8, !tbaa !9
  %28 = and i64 %27, 3
  %29 = or i64 %28, %26
  store i64 %29, ptr %25, align 8, !tbaa !9
  %30 = getelementptr i8, ptr %10, i64 -8
  %31 = load i64, ptr %30, align 8, !tbaa !4
  %32 = and i64 %31, 3
  %33 = or i64 %32, %24
  store i64 %33, ptr %30, align 8, !tbaa !4
  %34 = getelementptr inbounds nuw i8, ptr %21, i64 7632
  %35 = load i32, ptr %34, align 8, !tbaa !74
  %36 = xor i32 %35, 1
  %37 = sext i32 %36 to i64
  %38 = ptrtoint ptr %22 to i64
  %39 = or i64 %37, %38
  store i64 %39, ptr %17, align 8, !tbaa !9
  store i64 %26, ptr %23, align 8, !tbaa !4
  br label %40

40:                                               ; preds = %mappingproxy_check_mapping.exit.thread, %mappingproxy_check_mapping.exit, %_Py_NewRef.exit
  %.0 = phi ptr [ %10, %_Py_NewRef.exit ], [ null, %mappingproxy_check_mapping.exit ], [ null, %mappingproxy_check_mapping.exit.thread ]
  ret ptr %.0
}